; ModuleID = '22/824.c'
source_filename = "22/824.c"
target datalayout = "e-m:e-p270:32:32-p271:32:32-p272:64:64-i64:64-f80:128-n8:16:32:64-S128"
target triple = "x86_64-pc-linux-gnu"

@.str = private unnamed_addr constant [5 x i8] c"%d%c\00", align 1
@.str.1 = private unnamed_addr constant [3 x i8] c"%d\00", align 1
@.str.2 = private unnamed_addr constant [3 x i8] c"No\00", align 1

; Function Attrs: noinline nounwind uwtable
define dso_local i32 @main() #0 {
  %1 = alloca i32, align 4
  %2 = alloca [300 x i32], align 16
  %3 = alloca i32, align 4
  %4 = alloca i32, align 4
  %5 = alloca i32, align 4
  %6 = alloca i32, align 4
  %7 = alloca i32, align 4
  %8 = alloca [300 x i8], align 16
  store i32 0, i32* %1, align 4
  store i32 1, i32* %3, align 4
  store i32 -1, i32* %5, align 4
  store i32 1, i32* %6, align 4
  br label %9

9:                                                ; preds = %16, %0
  %10 = load i32, i32* %6, align 4
  %11 = icmp slt i32 %10, 300
  br i1 %11, label %12, label %19

12:                                               ; preds = %9
  %13 = load i32, i32* %6, align 4
  %14 = sext i32 %13 to i64
  %15 = getelementptr inbounds [300 x i32], [300 x i32]* %2, i64 0, i64 %14
  store i32 -1, i32* %15, align 4
  br label %16

16:                                               ; preds = %12
  %17 = load i32, i32* %6, align 4
  %18 = add nsw i32 %17, 1
  store i32 %18, i32* %6, align 4
  br label %9

19:                                               ; preds = %9
  br label %20

20:                                               ; preds = %35, %19
  %21 = load i32, i32* %3, align 4
  %22 = sext i32 %21 to i64
  %23 = getelementptr inbounds [300 x i32], [300 x i32]* %2, i64 0, i64 %22
  %24 = load i32, i32* %3, align 4
  %25 = sext i32 %24 to i64
  %26 = getelementptr inbounds [300 x i8], [300 x i8]* %8, i64 0, i64 %25
  %27 = call i32 (i8*, ...) @__isoc99_scanf(i8* getelementptr inbounds ([5 x i8], [5 x i8]* @.str, i64 0, i64 0), i32* %23, i8* %26)
  %28 = load i32, i32* %3, align 4
  %29 = sext i32 %28 to i64
  %30 = getelementptr inbounds [300 x i8], [300 x i8]* %8, i64 0, i64 %29
  %31 = load i8, i8* %30, align 1
  %32 = sext i8 %31 to i32
  %33 = icmp ne i32 %32, 44
  br i1 %33, label %34, label %35

34:                                               ; preds = %20
  br label %38

35:                                               ; preds = %20
  %36 = load i32, i32* %3, align 4
  %37 = add nsw i32 %36, 1
  store i32 %37, i32* %3, align 4
  br label %20

38:                                               ; preds = %34
  %39 = getelementptr inbounds [300 x i32], [300 x i32]* %2, i64 0, i64 1
  %40 = load i32, i32* %39, align 4
  store i32 %40, i32* %4, align 4
  store i32 1, i32* %3, align 4
  br label %41

41:                                               ; preds = %86, %38
  %42 = load i32, i32* %3, align 4
  %43 = sext i32 %42 to i64
  %44 = getelementptr inbounds [300 x i32], [300 x i32]* %2, i64 0, i64 %43
  %45 = load i32, i32* %44, align 4
  %46 = icmp sge i32 %45, 0
  br i1 %46, label %47, label %89

47:                                               ; preds = %41
  %48 = load i32, i32* %3, align 4
  %49 = add nsw i32 %48, 1
  %50 = sext i32 %49 to i64
  %51 = getelementptr inbounds [300 x i32], [300 x i32]* %2, i64 0, i64 %50
  %52 = load i32, i32* %51, align 4
  %53 = load i32, i32* %4, align 4
  %54 = icmp sgt i32 %52, %53
  br i1 %54, label %55, label %63

55:                                               ; preds = %47
  %56 = load i32, i32* %4, align 4
  store i32 %56, i32* %7, align 4
  %57 = load i32, i32* %3, align 4
  %58 = add nsw i32 %57, 1
  %59 = sext i32 %58 to i64
  %60 = getelementptr inbounds [300 x i32], [300 x i32]* %2, i64 0, i64 %59
  %61 = load i32, i32* %60, align 4
  store i32 %61, i32* %4, align 4
  %62 = load i32, i32* %7, align 4
  store i32 %62, i32* %5, align 4
  br label %86

63:                                               ; preds = %47
  %64 = load i32, i32* %3, align 4
  %65 = add nsw i32 %64, 1
  %66 = sext i32 %65 to i64
  %67 = getelementptr inbounds [300 x i32], [300 x i32]* %2, i64 0, i64 %66
  %68 = load i32, i32* %67, align 4
  %69 = load i32, i32* %4, align 4
  %70 = icmp slt i32 %68, %69
  br i1 %70, label %71, label %85

71:                                               ; preds = %63
  %72 = load i32, i32* %3, align 4
  %73 = add nsw i32 %72, 1
  %74 = sext i32 %73 to i64
  %75 = getelementptr inbounds [300 x i32], [300 x i32]* %2, i64 0, i64 %74
  %76 = load i32, i32* %75, align 4
  %77 = load i32, i32* %5, align 4
  %78 = icmp sgt i32 %76, %77
  br i1 %78, label %79, label %85

79:                                               ; preds = %71
  %80 = load i32, i32* %3, align 4
  %81 = add nsw i32 %80, 1
  %82 = sext i32 %81 to i64
  %83 = getelementptr inbounds [300 x i32], [300 x i32]* %2, i64 0, i64 %82
  %84 = load i32, i32* %83, align 4
  store i32 %84, i32* %5, align 4
  br label %85

85:                                               ; preds = %79, %71, %63
  br label %86

86:                                               ; preds = %85, %55
  %87 = load i32, i32* %3, align 4
  %88 = add nsw i32 %87, 1
  store i32 %88, i32* %3, align 4
  br label %41

89:                                               ; preds = %41
  %90 = load i32, i32* %5, align 4
  %91 = icmp sge i32 %90, 0
  br i1 %91, label %92, label %95

92:                                               ; preds = %89
  %93 = load i32, i32* %5, align 4
  %94 = call i32 (i8*, ...) @printf(i8* getelementptr inbounds ([3 x i8], [3 x i8]* @.str.1, i64 0, i64 0), i32 %93)
  br label %97

95:                                               ; preds = %89
  %96 = call i32 (i8*, ...) @printf(i8* getelementptr inbounds ([3 x i8], [3 x i8]* @.str.2, i64 0, i64 0))
  br label %97

97:                                               ; preds = %95, %92
  ret i32 0
}

declare dso_local i32 @__isoc99_scanf(i8*, ...) #1

declare dso_local i32 @printf(i8*, ...) #1


!llvm.module.flags = !{!0}
!llvm.ident = !{!1}

!0 = !{i32 1, !"wchar_size", i32 4}
!1 = !{!"clang version 10.0.0-4ubuntu1 "}
