; ModuleID = 'source-C-CXX/21/824.c'
source_filename = "source-C-CXX/21/824.c"
target datalayout = "e-m:e-p270:32:32-p271:32:32-p272:64:64-i64:64-f80:128-n8:16:32:64-S128"
target triple = "x86_64-pc-linux-gnu"

@.str = private unnamed_addr constant [5 x i8] c"%d%c\00", align 1
@.str.1 = private unnamed_addr constant [3 x i8] c"%d\00", align 1
@.str.2 = private unnamed_addr constant [3 x i8] c"No\00", align 1

; Function Attrs: nofree nounwind sspstrong uwtable
define dso_local i32 @main() local_unnamed_addr #0 {
  %1 = alloca [300 x i32], align 16
  %2 = alloca [300 x i8], align 16
  %3 = bitcast [300 x i32]* %1 to i8*
  call void @llvm.lifetime.start.p0i8(i64 1200, i8* nonnull %3) #4
  %4 = getelementptr inbounds [300 x i32], [300 x i32]* %1, i64 0, i64 1
  %5 = bitcast i32* %4 to i8*
  call void @llvm.memset.p0i8.i64(i8* noundef nonnull align 4 dereferenceable(1196) %5, i8 -1, i64 1196, i1 false)
  %6 = getelementptr inbounds [300 x i8], [300 x i8]* %2, i64 0, i64 0
  call void @llvm.lifetime.start.p0i8(i64 300, i8* nonnull %6) #4
  br label %7

7:                                                ; preds = %7, %0
  %8 = phi i64 [ %14, %7 ], [ 1, %0 ]
  %9 = getelementptr inbounds [300 x i32], [300 x i32]* %1, i64 0, i64 %8
  %10 = getelementptr inbounds [300 x i8], [300 x i8]* %2, i64 0, i64 %8
  %11 = call i32 (i8*, ...) @__isoc99_scanf(i8* getelementptr inbounds ([5 x i8], [5 x i8]* @.str, i64 0, i64 0), i32* nonnull %9, i8* nonnull %10)
  %12 = load i8, i8* %10, align 1, !tbaa !5
  %13 = icmp eq i8 %12, 44
  %14 = add nuw i64 %8, 1
  br i1 %13, label %7, label %15

15:                                               ; preds = %7
  %16 = load i32, i32* %4, align 4, !tbaa !8
  %17 = icmp sgt i32 %16, -1
  br i1 %17, label %18, label %37

18:                                               ; preds = %15, %18
  %19 = phi i64 [ %22, %18 ], [ 1, %15 ]
  %20 = phi i32 [ %31, %18 ], [ -1, %15 ]
  %21 = phi i32 [ %30, %18 ], [ %16, %15 ]
  %22 = add nuw nsw i64 %19, 1
  %23 = getelementptr inbounds [300 x i32], [300 x i32]* %1, i64 0, i64 %22
  %24 = load i32, i32* %23, align 4, !tbaa !8
  %25 = icmp sgt i32 %24, %21
  %26 = icmp slt i32 %24, %21
  %27 = icmp sgt i32 %24, %20
  %28 = select i1 %26, i1 %27, i1 false
  %29 = select i1 %28, i32 %24, i32 %20
  %30 = select i1 %25, i32 %24, i32 %21
  %31 = select i1 %25, i32 %21, i32 %29
  %32 = icmp sgt i32 %24, -1
  br i1 %32, label %18, label %33, !llvm.loop !10

33:                                               ; preds = %18
  %34 = icmp sgt i32 %31, -1
  br i1 %34, label %35, label %37

35:                                               ; preds = %33
  %36 = call i32 (i8*, ...) @printf(i8* nonnull dereferenceable(1) getelementptr inbounds ([3 x i8], [3 x i8]* @.str.1, i64 0, i64 0), i32 %31)
  br label %39

37:                                               ; preds = %15, %33
  %38 = call i32 (i8*, ...) @printf(i8* nonnull dereferenceable(1) getelementptr inbounds ([3 x i8], [3 x i8]* @.str.2, i64 0, i64 0))
  br label %39

39:                                               ; preds = %37, %35
  call void @llvm.lifetime.end.p0i8(i64 300, i8* nonnull %6) #4
  call void @llvm.lifetime.end.p0i8(i64 1200, i8* nonnull %3) #4
  ret i32 0
}

; Function Attrs: argmemonly mustprogress nofree nosync nounwind willreturn
declare void @llvm.lifetime.start.p0i8(i64 immarg, i8* nocapture) #1

; Function Attrs: nofree nounwind
declare noundef i32 @__isoc99_scanf(i8* nocapture noundef readonly, ...) local_unnamed_addr #2

; Function Attrs: nofree nounwind
declare noundef i32 @printf(i8* nocapture noundef readonly, ...) local_unnamed_addr #2

; Function Attrs: argmemonly mustprogress nofree nosync nounwind willreturn
declare void @llvm.lifetime.end.p0i8(i64 immarg, i8* nocapture) #1

; Function Attrs: argmemonly nofree nounwind willreturn writeonly
declare void @llvm.memset.p0i8.i64(i8* nocapture writeonly, i8, i64, i1 immarg) #3


!llvm.module.flags = !{!0, !1, !2, !3}
!llvm.ident = !{!4}

!0 = !{i32 1, !"wchar_size", i32 4}
!1 = !{i32 7, !"PIC Level", i32 2}
!2 = !{i32 7, !"PIE Level", i32 2}
!3 = !{i32 7, !"uwtable", i32 1}
!4 = !{!"clang version 13.0.0"}
!5 = !{!6, !6, i64 0}
!6 = !{!"omnipotent char", !7, i64 0}
!7 = !{!"Simple C/C++ TBAA"}
!8 = !{!9, !9, i64 0}
!9 = !{!"int", !6, i64 0}
!10 = distinct !{!10, !11}
!11 = !{!"llvm.loop.mustprogress"}
